; Function Attrs: mustprogress uwtable
define void @_Z14common_log_addP10common_log14ggml_log_levelPKcz(ptr noundef nonnull %0, i32 noundef %1, ptr noundef %2, ...) local_unnamed_addr #5 {
  %4 = alloca [1 x %struct.__va_list_tag], align 16
  call void @llvm.lifetime.start.p0(i64 24, ptr nonnull %4) #24
  call void @llvm.va_start.p0(ptr nonnull %4)
  call void @_ZN10common_log3addE14ggml_log_levelPKcP13__va_list_tag(ptr noundef nonnull align 8 dereferenceable(208) %0, i32 noundef %1, ptr noundef %2, ptr noundef nonnull %4)
  call void @llvm.va_end.p0(ptr nonnull %4)
  call void @llvm.lifetime.end.p0(i64 24, ptr nonnull %4) #24
  ret void
}